target datalayout = "e-m:e-p270:32:32-p271:32:32-p272:64:64-i64:64-i128:128-f80:128-n8:16:32:64-S128"
target triple = "x86_64-pc-linux-gnu"

%struct.stack_st = type { i64, ptr, i64, i64, ptr }

; Function Attrs: nounwind uwtable
define hidden ptr @sk_new(ptr noundef %0) #0 {
  %2 = alloca ptr, align 8
  %3 = alloca ptr, align 8
  %4 = alloca ptr, align 8
  %5 = alloca i32, align 4
  store ptr %0, ptr %3, align 8, !tbaa !6
  call void @llvm.lifetime.start.p0(i64 8, ptr %4) #9
  %6 = call noalias ptr @malloc(i64 noundef 40) #10
  store ptr %6, ptr %4, align 8, !tbaa !10
  %7 = load ptr, ptr %4, align 8, !tbaa !10
  %8 = icmp eq ptr %7, null
  br i1 %8, label %9, label %10

9:                                                ; preds = %1
  br label %30

10:                                               ; preds = %1
  %11 = load ptr, ptr %4, align 8, !tbaa !10
  call void @llvm.memset.p0.i64(ptr align 8 %11, i8 0, i64 40, i1 false)
  %12 = call noalias ptr @malloc(i64 noundef 32) #10
  %13 = load ptr, ptr %4, align 8, !tbaa !10
  %14 = getelementptr inbounds nuw %struct.stack_st, ptr %13, i32 0, i32 1
  store ptr %12, ptr %14, align 8, !tbaa !12
  %15 = load ptr, ptr %4, align 8, !tbaa !10
  %16 = getelementptr inbounds nuw %struct.stack_st, ptr %15, i32 0, i32 1
  %17 = load ptr, ptr %16, align 8, !tbaa !12
  %18 = icmp eq ptr %17, null
  br i1 %18, label %19, label %20

19:                                               ; preds = %10
  br label %30

20:                                               ; preds = %10
  %21 = load ptr, ptr %4, align 8, !tbaa !10
  %22 = getelementptr inbounds nuw %struct.stack_st, ptr %21, i32 0, i32 1
  %23 = load ptr, ptr %22, align 8, !tbaa !12
  call void @llvm.memset.p0.i64(ptr align 8 %23, i8 0, i64 32, i1 false)
  %24 = load ptr, ptr %3, align 8, !tbaa !6
  %25 = load ptr, ptr %4, align 8, !tbaa !10
  %26 = getelementptr inbounds nuw %struct.stack_st, ptr %25, i32 0, i32 4
  store ptr %24, ptr %26, align 8, !tbaa !15
  %27 = load ptr, ptr %4, align 8, !tbaa !10
  %28 = getelementptr inbounds nuw %struct.stack_st, ptr %27, i32 0, i32 3
  store i64 4, ptr %28, align 8, !tbaa !16
  %29 = load ptr, ptr %4, align 8, !tbaa !10
  store ptr %29, ptr %2, align 8
  store i32 1, ptr %5, align 4
  br label %32

30:                                               ; preds = %19, %9
  %31 = load ptr, ptr %4, align 8, !tbaa !10
  call void @free(ptr noundef %31) #9
  store ptr null, ptr %2, align 8
  store i32 1, ptr %5, align 4
  br label %32

32:                                               ; preds = %30, %20
  call void @llvm.lifetime.end.p0(i64 8, ptr %4) #9
  %33 = load ptr, ptr %2, align 8
  ret ptr %33
}