; Function Attrs: mustprogress nounwind willreturn memory(readwrite, argmem: none) uwtable
define hidden noalias noundef ptr @sk_new(ptr noundef %0) local_unnamed_addr #0 {
  %calloc13 = tail call dereferenceable_or_null(40) ptr @calloc(i64 1, i64 40)
  %2 = icmp eq ptr %calloc13, null
  br i1 %2, label %9, label %3

3:                                                ; preds = %1
  %calloc = tail call dereferenceable_or_null(32) ptr @calloc(i64 1, i64 32)
  %4 = getelementptr inbounds nuw i8, ptr %calloc13, i64 8
  store ptr %calloc, ptr %4, align 8, !tbaa !6
  %5 = icmp eq ptr %calloc, null
  br i1 %5, label %9, label %6

6:                                                ; preds = %3
  %7 = getelementptr inbounds nuw i8, ptr %calloc13, i64 32
  store ptr %0, ptr %7, align 8, !tbaa !12
  %8 = getelementptr inbounds nuw i8, ptr %calloc13, i64 24
  store i64 4, ptr %8, align 8, !tbaa !13
  br label %10

9:                                                ; preds = %3, %1
  tail call void @free(ptr noundef %calloc13) #17
  br label %10

10:                                               ; preds = %9, %6
  %.0 = phi ptr [ null, %9 ], [ %calloc13, %6 ]
  ret ptr %.0
}